target datalayout = "e-m:e-p270:32:32-p271:32:32-p272:64:64-i64:64-i128:128-f80:128-n8:16:32:64-S128"
target triple = "x86_64-pc-linux-gnu"

@stderr = external global ptr, align 8
@.str.6 = private unnamed_addr constant [31 x i8] c"BUG!!! too long a prefix '%s'\0A\00", align 1
@.str.7 = private unnamed_addr constant [37 x i8] c"error: unable to format message: %s\0A\00", align 1
@sane_ctype = external constant [256 x i8], align 16
@.str.8 = private unnamed_addr constant [1 x i8] zeroinitializer, align 1
@git_gettext_enabled = external global i32, align 4

; Function Attrs: inlinehint nounwind uwtable
define internal ptr @_(ptr noundef %0) #7 {
  %2 = alloca ptr, align 8
  %3 = alloca ptr, align 8
  store ptr %0, ptr %3, align 8, !tbaa !8
  %4 = load ptr, ptr %3, align 8, !tbaa !8
  %5 = load i8, ptr %4, align 1, !tbaa !18
  %6 = icmp ne i8 %5, 0
  br i1 %6, label %8, label %7

7:                                                ; preds = %1
  store ptr @.str.8, ptr %2, align 8
  br label %16

8:                                                ; preds = %1
  %9 = load i32, ptr @git_gettext_enabled, align 4, !tbaa !10
  %10 = icmp ne i32 %9, 0
  br i1 %10, label %13, label %11

11:                                               ; preds = %8
  %12 = load ptr, ptr %3, align 8, !tbaa !8
  store ptr %12, ptr %2, align 8
  br label %16

13:                                               ; preds = %8
  %14 = load ptr, ptr %3, align 8, !tbaa !8
  %15 = call ptr @dcgettext(ptr noundef null, ptr noundef %14, i32 noundef 5) #11
  store ptr %15, ptr %2, align 8
  br label %16

16:                                               ; preds = %13, %11, %7
  %17 = load ptr, ptr %2, align 8
  ret ptr %17
}

; Function Attrs: nounwind uwtable
define internal void @vfreportf(ptr noundef %0, ptr noundef %1, ptr noundef %2, ptr noundef %3) #0 {
  %5 = alloca ptr, align 8
  %6 = alloca ptr, align 8
  %7 = alloca ptr, align 8
  %8 = alloca ptr, align 8
  %9 = alloca [4096 x i8], align 16
  %10 = alloca ptr, align 8
  %11 = alloca ptr, align 8
  %12 = alloca i64, align 8
  store ptr %0, ptr %5, align 8, !tbaa !14
  store ptr %1, ptr %6, align 8, !tbaa !8
  store ptr %2, ptr %7, align 8, !tbaa !8
  store ptr %3, ptr %8, align 8, !tbaa !21
  call void @llvm.lifetime.start.p0(i64 4096, ptr %9) #11
  call void @llvm.lifetime.start.p0(i64 8, ptr %10) #11
  call void @llvm.lifetime.start.p0(i64 8, ptr %11) #11
  %13 = getelementptr inbounds [4096 x i8], ptr %9, i64 0, i64 0
  %14 = getelementptr inbounds nuw i8, ptr %13, i64 4096
  store ptr %14, ptr %11, align 8, !tbaa !8
  call void @llvm.lifetime.start.p0(i64 8, ptr %12) #11
  %15 = load ptr, ptr %6, align 8, !tbaa !8
  %16 = call i64 @strlen(ptr noundef %15) #13
  store i64 %16, ptr %12, align 8, !tbaa !16
  %17 = load i64, ptr %12, align 8, !tbaa !16
  %18 = icmp ule i64 4096, %17
  br i1 %18, label %19, label %23

19:                                               ; preds = %4
  %20 = load ptr, ptr @stderr, align 8, !tbaa !14
  %21 = load ptr, ptr %6, align 8, !tbaa !8
  %22 = call i32 (ptr, ptr, ...) @fprintf(ptr noundef %20, ptr noundef @.str.6, ptr noundef %21) #11
  call void @abort() #14
  unreachable

23:                                               ; preds = %4
  %24 = getelementptr inbounds [4096 x i8], ptr %9, i64 0, i64 0
  %25 = load ptr, ptr %6, align 8, !tbaa !8
  %26 = load i64, ptr %12, align 8, !tbaa !16
  call void @llvm.memcpy.p0.p0.i64(ptr align 16 %24, ptr align 1 %25, i64 %26, i1 false)
  %27 = getelementptr inbounds [4096 x i8], ptr %9, i64 0, i64 0
  %28 = load i64, ptr %12, align 8, !tbaa !16
  %29 = getelementptr inbounds nuw i8, ptr %27, i64 %28
  store ptr %29, ptr %10, align 8, !tbaa !8
  %30 = load ptr, ptr %10, align 8, !tbaa !8
  %31 = load ptr, ptr %11, align 8, !tbaa !8
  %32 = load ptr, ptr %10, align 8, !tbaa !8
  %33 = ptrtoint ptr %31 to i64
  %34 = ptrtoint ptr %32 to i64
  %35 = sub i64 %33, %34
  %36 = load ptr, ptr %7, align 8, !tbaa !8
  %37 = load ptr, ptr %8, align 8, !tbaa !21
  %38 = call i32 @vsnprintf(ptr noundef %30, i64 noundef %35, ptr noundef %36, ptr noundef %37) #11
  %39 = icmp slt i32 %38, 0
  br i1 %39, label %40, label %46

40:                                               ; preds = %23
  %41 = load ptr, ptr @stderr, align 8, !tbaa !14
  %42 = call ptr @_(ptr noundef @.str.7)
  %43 = load ptr, ptr %7, align 8, !tbaa !8
  %44 = call i32 (ptr, ptr, ...) @fprintf(ptr noundef %41, ptr noundef %42, ptr noundef %43) #11
  %45 = load ptr, ptr %10, align 8, !tbaa !8
  store i8 0, ptr %45, align 1, !tbaa !18
  br label %46

46:                                               ; preds = %40, %23
  br label %47

47:                                               ; preds = %81, %46
  %48 = load ptr, ptr %10, align 8, !tbaa !8
  %49 = load ptr, ptr %11, align 8, !tbaa !8
  %50 = getelementptr inbounds i8, ptr %49, i64 -1
  %51 = icmp ne ptr %48, %50
  br i1 %51, label %52, label %57

52:                                               ; preds = %47
  %53 = load ptr, ptr %10, align 8, !tbaa !8
  %54 = load i8, ptr %53, align 1, !tbaa !18
  %55 = sext i8 %54 to i32
  %56 = icmp ne i32 %55, 0
  br label %57

57:                                               ; preds = %52, %47
  %58 = phi i1 [ false, %47 ], [ %56, %52 ]
  br i1 %58, label %59, label %84

59:                                               ; preds = %57
  %60 = load ptr, ptr %10, align 8, !tbaa !8
  %61 = load i8, ptr %60, align 1, !tbaa !18
  %62 = zext i8 %61 to i64
  %63 = getelementptr inbounds nuw [256 x i8], ptr @sane_ctype, i64 0, i64 %62
  %64 = load i8, ptr %63, align 1, !tbaa !18
  %65 = zext i8 %64 to i32
  %66 = and i32 %65, 64
  %67 = icmp ne i32 %66, 0
  br i1 %67, label %68, label %80

68:                                               ; preds = %59
  %69 = load ptr, ptr %10, align 8, !tbaa !8
  %70 = load i8, ptr %69, align 1, !tbaa !18
  %71 = sext i8 %70 to i32
  %72 = icmp ne i32 %71, 9
  br i1 %72, label %73, label %80

73:                                               ; preds = %68
  %74 = load ptr, ptr %10, align 8, !tbaa !8
  %75 = load i8, ptr %74, align 1, !tbaa !18
  %76 = sext i8 %75 to i32
  %77 = icmp ne i32 %76, 10
  br i1 %77, label %78, label %80

78:                                               ; preds = %73
  %79 = load ptr, ptr %10, align 8, !tbaa !8
  store i8 63, ptr %79, align 1, !tbaa !18
  br label %80

80:                                               ; preds = %78, %73, %68, %59
  br label %81

81:                                               ; preds = %80
  %82 = load ptr, ptr %10, align 8, !tbaa !8
  %83 = getelementptr inbounds nuw i8, ptr %82, i32 1
  store ptr %83, ptr %10, align 8, !tbaa !8
  br label %47, !llvm.loop !23

84:                                               ; preds = %57
  %85 = load ptr, ptr %10, align 8, !tbaa !8
  %86 = getelementptr inbounds nuw i8, ptr %85, i32 1
  store ptr %86, ptr %10, align 8, !tbaa !8
  store i8 10, ptr %85, align 1, !tbaa !18
  %87 = load ptr, ptr %5, align 8, !tbaa !14
  %88 = call i32 @fflush(ptr noundef %87)
  %89 = load ptr, ptr %5, align 8, !tbaa !14
  %90 = call i32 @fileno(ptr noundef %89) #11
  %91 = getelementptr inbounds [4096 x i8], ptr %9, i64 0, i64 0
  %92 = load ptr, ptr %10, align 8, !tbaa !8
  %93 = getelementptr inbounds [4096 x i8], ptr %9, i64 0, i64 0
  %94 = ptrtoint ptr %92 to i64
  %95 = ptrtoint ptr %93 to i64
  %96 = sub i64 %94, %95
  %97 = call i64 @write_in_full(i32 noundef %90, ptr noundef %91, i64 noundef %96)
  call void @llvm.lifetime.end.p0(i64 8, ptr %12) #11
  call void @llvm.lifetime.end.p0(i64 8, ptr %11) #11
  call void @llvm.lifetime.end.p0(i64 8, ptr %10) #11
  call void @llvm.lifetime.end.p0(i64 4096, ptr %9) #11
  ret void
}