; Function Attrs: nounwind uwtable
define internal fastcc void @vfreportf(ptr noundef captures(none) %0, ptr noundef %1, ptr noundef %2, ptr noundef %3) unnamed_addr #6 {
  %5 = alloca [4096 x i8], align 16
  call void @llvm.lifetime.start.p0(i64 4096, ptr nonnull %5) #17
  %6 = tail call i64 @strlen(ptr noundef nonnull dereferenceable(1) %1) #22
  %7 = icmp ugt i64 %6, 4095
  br i1 %7, label %8, label %11

8:                                                ; preds = %4
  %9 = load ptr, ptr @stderr, align 8, !tbaa !10
  %10 = tail call i32 (ptr, ptr, ...) @fprintf(ptr noundef %9, ptr noundef nonnull @.str.6, ptr noundef nonnull %1) #23
  tail call void @abort() #19
  unreachable

11:                                               ; preds = %4
  call void @llvm.memcpy.p0.p0.i64(ptr nonnull align 16 %5, ptr nonnull align 1 %1, i64 %6, i1 false)
  %.ptr26 = getelementptr inbounds nuw i8, ptr %5, i64 %6
  %gepdiff = sub nuw nsw i64 4096, %6
  %12 = call i32 @vsnprintf(ptr noundef nonnull %.ptr26, i64 noundef %gepdiff, ptr noundef %2, ptr noundef %3) #17
  %13 = icmp slt i32 %12, 0
  br i1 %13, label %14, label %20

14:                                               ; preds = %11
  %15 = load ptr, ptr @stderr, align 8, !tbaa !10
  %16 = load i32, ptr @git_gettext_enabled, align 4, !tbaa !12
  %.not4.i = icmp eq i32 %16, 0
  br i1 %.not4.i, label %_.exit, label %17

17:                                               ; preds = %14
  %18 = tail call ptr @dcgettext(ptr noundef null, ptr noundef nonnull @.str.7, i32 noundef 5) #17
  br label %_.exit

_.exit:                                           ; preds = %14, %17
  %.0.i = phi ptr [ %18, %17 ], [ @.str.7, %14 ]
  %19 = tail call i32 (ptr, ptr, ...) @fprintf(ptr noundef %15, ptr noundef %.0.i, ptr noundef %2) #23
  store i8 0, ptr %.ptr26, align 1, !tbaa !14
  br label %20

20:                                               ; preds = %_.exit, %11
  %.not33 = icmp eq i64 %6, 4095
  br i1 %.not33, label %.critedge, label %.lr.ph

.lr.ph:                                           ; preds = %20, %30
  %.0.ptr35 = phi ptr [ %.0.ptr, %30 ], [ %.ptr26, %20 ]
  %.0.idx34 = phi i64 [ %.0.add, %30 ], [ %6, %20 ]
  %21 = load i8, ptr %.0.ptr35, align 1, !tbaa !14
  %.not27 = icmp eq i8 %21, 0
  br i1 %.not27, label %.critedge, label %22

22:                                               ; preds = %.lr.ph
  %23 = zext i8 %21 to i64
  %24 = getelementptr inbounds nuw [256 x i8], ptr @sane_ctype, i64 0, i64 %23
  %25 = load i8, ptr %24, align 1, !tbaa !14
  %26 = and i8 %25, 64
  %.not28 = icmp eq i8 %26, 0
  %27 = add i8 %21, -9
  %28 = icmp ult i8 %27, 2
  %or.cond31 = or i1 %28, %.not28
  br i1 %or.cond31, label %30, label %29

29:                                               ; preds = %22
  store i8 63, ptr %.0.ptr35, align 1, !tbaa !14
  br label %30

30:                                               ; preds = %22, %29
  %.0.add = add nuw nsw i64 %.0.idx34, 1
  %.0.ptr = getelementptr inbounds nuw i8, ptr %5, i64 %.0.add
  %.not = icmp eq i64 %.0.add, 4095
  br i1 %.not, label %.critedge, label %.lr.ph, !llvm.loop !17

.critedge:                                        ; preds = %.lr.ph, %30, %20
  %.0.ptr.lcssa = phi ptr [ %.ptr26, %20 ], [ %.0.ptr, %30 ], [ %.0.ptr35, %.lr.ph ]
  %31 = getelementptr inbounds nuw i8, ptr %.0.ptr.lcssa, i64 1
  store i8 10, ptr %.0.ptr.lcssa, align 1, !tbaa !14
  %32 = tail call i32 @fflush(ptr noundef %0)
  %33 = tail call i32 @fileno(ptr noundef %0) #17
  %34 = ptrtoint ptr %31 to i64
  %35 = ptrtoint ptr %5 to i64
  %36 = sub i64 %34, %35
  %37 = call i64 @write_in_full(i32 noundef %33, ptr noundef nonnull %5, i64 noundef %36) #17
  call void @llvm.lifetime.end.p0(i64 4096, ptr nonnull %5) #17
  ret void
}